Certificate:
    Data:
        Version: 3 (0x2)
        Serial Number: 4096 (0x1000)
        Signature Algorithm: sha256WithRSAEncryption
        Issuer: C=RU, ST=Moscow, L=Moscow, O=DevOrg, OU=PKI, CN=Dev Root CA
        Validity
            Not Before: Jan 25 16:20:28 2026 GMT
            Not After : May  2 16:20:28 2036 GMT
        Subject: CN=mtls-tun
        Subject Public Key Info:
            Public Key Algorithm: rsaEncryption
                Public-Key: (2048 bit)
                Modulus:
                    00:b3:9e:b5:58:cb:ce:27:18:db:3b:d5:b8:83:b6:
                    3e:87:7e:7d:34:47:88:ae:a1:4f:62:e3:4a:38:26:
                    14:a4:2f:f4:16:78:9e:e4:cd:32:3b:e5:78:b1:f9:
                    c9:19:e7:09:2b:0a:8f:62:07:8c:1d:87:60:b1:67:
                    3a:74:c9:23:dd:50:a7:93:3c:ed:1e:d6:6f:44:7c:
                    b6:94:12:f6:78:fb:6d:0b:1d:6e:a8:fd:67:fd:fe:
                    f7:e1:11:28:71:29:17:98:63:b4:4a:82:ab:1a:88:
                    cc:49:83:aa:82:2e:2d:1b:d6:57:1e:54:1c:96:68:
                    f2:33:1f:77:1a:70:b2:f5:37:10:96:73:e1:8f:41:
                    76:0d:a4:e7:83:ad:74:e4:80:fd:12:c0:8b:44:df:
                    6e:43:32:d9:cd:d2:da:d8:c5:ef:88:b8:cd:fd:01:
                    49:15:e0:14:e3:06:6a:34:13:6b:f8:ca:64:c7:f4:
                    81:7d:38:b6:0e:90:db:54:75:a6:a2:3a:82:1e:26:
                    ee:8c:af:e5:4c:77:58:6c:f0:1a:26:df:91:bf:8f:
                    79:43:d3:e8:ad:94:e7:68:27:4a:66:cd:6c:dd:98:
                    91:ec:85:a4:33:a3:c9:f0:19:0d:41:e4:2d:4b:6b:
                    6e:df:1e:0f:75:f0:bf:81:42:5a:ee:47:ff:da:05:
                    ad:8d
                Exponent: 65537 (0x10001)
        X509v3 extensions:
            X509v3 Basic Constraints: 
                CA:FALSE
            X509v3 Key Usage: critical
                Digital Signature, Key Encipherment
            X509v3 Extended Key Usage: 
                TLS Web Server Authentication
            X509v3 Subject Key Identifier: 
                41:00:35:62:29:C4:56:D4:15:63:24:65:CF:98:19:F0:D6:A8:72:A7
            X509v3 Authority Key Identifier: 
                D6:C5:AC:A0:18:1E:84:F0:44:4A:90:12:47:D0:36:5B:1E:90:40:4A
    Signature Algorithm: sha256WithRSAEncryption
    Signature Value:
        3c:38:5d:f9:16:a1:59:d0:f2:b7:9c:fd:d3:b0:4f:58:ca:5d:
        ec:eb:30:74:8a:11:e2:db:49:24:93:47:35:94:ec:42:e1:da:
        cd:71:b1:95:51:3c:6c:5d:4b:95:dd:3a:db:ea:c7:6f:07:32:
        de:68:1e:cc:d6:09:4e:5f:35:43:cb:bc:53:c0:76:0e:5b:17:
        a0:55:03:0d:3b:cf:c0:29:f8:49:a0:87:b5:c3:cd:bc:27:b3:
        5f:6d:33:7a:9e:66:ff:50:3a:56:b6:1d:f2:1b:47:b9:3a:97:
        5a:2f:2b:d1:84:28:2b:89:b4:0a:65:c1:eb:ff:67:cf:cd:88:
        52:92:e5:6b:a0:a3:7a:f1:ac:3c:72:3a:23:a5:05:98:41:88:
        81:5c:a8:a8:6b:82:7b:f3:21:ac:1d:24:e7:1a:ff:85:fb:f8:
        ec:30:2c:14:b3:d2:47:56:4c:12:66:62:82:30:c3:e8:91:60:
        f9:e5:db:eb:53:35:d1:37:7d:7c:87:85:65:20:8e:db:38:2c:
        aa:ae:2a:7c:a3:f4:b6:c6:24:f7:bf:f6:5d:08:77:77:7c:6a:
        7b:d4:c1:17:55:41:1f:07:0d:8e:95:ab:2d:c0:08:1d:90:33:
        2b:eb:29:29:b0:e1:4d:9c:a1:98:86:c4:20:3d:b4:32:0e:b3:
        c9:ad:ae:3c:19:f5:b9:29:a9:86:26:c8:9d:d7:4e:7c:b1:41:
        d8:aa:53:a4:ff:0e:58:62:62:1a:b2:83:41:50:78:51:6c:63:
        44:8a:66:96:a0:fd:15:9b:35:b5:f1:96:2e:30:7b:d0:1a:4e:
        28:6c:5e:a0:e4:54:71:bd:f7:93:d9:88:42:ac:1d:72:af:5b:
        b3:2a:5b:9d:21:b5:08:07:7f:2a:7c:95:ba:d2:97:f3:1a:ca:
        91:08:62:89:0f:31:b5:55:a6:a7:81:b1:8a:05:34:03:82:09:
        5b:ce:3b:74:37:f8:40:30:0e:12:3a:a0:61:4e:99:d9:6a:e2:
        81:36:ce:f7:36:f6:ed:f6:9f:1a:70:41:d9:6b:ca:78:d5:86:
        46:90:4c:11:ef:54:1d:4f:3a:7f:19:1a:4f:94:af:15:bd:8d:
        a3:cd:3b:d1:aa:78:01:73:f7:e5:8e:b8:7b:8c:b7:56:3b:be:
        3c:41:ad:60:14:38:ba:1c:8a:56:a2:bd:76:0b:cf:75:3a:a3:
        1a:bc:a1:fa:08:6e:d3:1d:c2:db:fa:60:2b:a1:ca:d8:3b:88:
        b1:12:09:6f:de:0a:84:b7:7f:16:c3:bf:15:23:9f:20:62:2b:
        2c:fb:ab:7f:7e:29:66:39:3d:20:3c:ad:e4:f2:3d:cd:04:28:
        09:55:30:f2:b8:4f:02:fa
-----BEGIN CERTIFICATE-----
MIIEZTCCAk2gAwIBAgICEAAwDQYJKoZIhvcNAQELBQAwZDELMAkGA1UEBhMCUlUx
DzANBgNVBAgMBk1vc2NvdzEPMA0GA1UEBwwGTW9zY293MQ8wDQYDVQQKDAZEZXZP
cmcxDDAKBgNVBAsMA1BLSTEUMBIGA1UEAwwLRGV2IFJvb3QgQ0EwHhcNMjYwMTI1
MTYyMDI4WhcNMzYwNTAyMTYyMDI4WjATMREwDwYDVQQDDAhtdGxzLXR1bjCCASIw
DQYJKoZIhvcNAQEBBQADggEPADCCAQoCggEBALOetVjLzicY2zvVuIO2Pod+fTRH
iK6hT2LjSjgmFKQv9BZ4nuTNMjvleLH5yRnnCSsKj2IHjB2HYLFnOnTJI91Qp5M8
7R7Wb0R8tpQS9nj7bQsdbqj9Z/3+9+ERKHEpF5hjtEqCqxqIzEmDqoIuLRvWVx5U
HJZo8jMfdxpwsvU3EJZz4Y9Bdg2k54OtdOSA/RLAi0TfbkMy2c3S2tjF74i4zf0B
SRXgFOMGajQTa/jKZMf0gX04tg6Q21R1pqI6gh4m7oyv5Ux3WGzwGibfkb+PeUPT
6K2U52gnSmbNbN2YkeyFpDOjyfAZDUHkLUtrbt8eD3Xwv4FCWu5H/9oFrY0CAwEA
AaNyMHAwCQYDVR0TBAIwADAOBgNVHQ8BAf8EBAMCBaAwEwYDVR0lBAwwCgYIKwYB
BQUHAwEwHQYDVR0OBBYEFEEANWIpxFbUFWMkZc+YGfDWqHKnMB8GA1UdIwQYMBaA
FNbFrKAYHoTwREqQEkfQNlsekEBKMA0GCSqGSIb3DQEBCwUAA4ICAQA8OF35FqFZ
0PK3nP3TsE9Yyl3s6zB0ihHi20kkk0c1lOxC4drNcbGVUTxsXUuV3Trb6sdvBzLe
aB7M1glOXzVDy7xTwHYOWxegVQMNO8/AKfhJoIe1w828J7NfbTN6nmb/UDpWth3y
G0e5OpdaLyvRhCgribQKZcHr/2fPzYhSkuVroKN68aw8cjojpQWYQYiBXKioa4J7
8yGsHSTnGv+F+/jsMCwUs9JHVkwSZmKCMMPokWD55dvrUzXRN318h4VlII7bOCyq
rip8o/S2xiT3v/ZdCHd3fGp71MEXVUEfBw2OlastwAgdkDMr6ykpsOFNnKGYhsQg
PbQyDrPJra48GfW5KamGJsid1058sUHYqlOk/w5YYmIasoNBUHhRbGNEimaWoP0V
mzW18ZYuMHvQGk4obF6g5FRxvfeT2YhCrB1yr1uzKludIbUIB38qfJW60pfzGsqR
CGKJDzG1VaangbGKBTQDgglbzjt0N/hAMA4SOqBhTpnZauKBNs73Nvbt9p8acEHZ
a8p41YZGkEwR71QdTzp/GRpPlK8VvY2jzTvRqngBc/fljrh7jLdWO748Qa1gFDi6
HIpWor12C891OqMavKH6CG7THcLb+mArocrYO4ixEglv3gqEt38Ww78VI58gYiss
+6t/filmOT0gPK3k8j3NBCgJVTDyuE8C+g==
-----END CERTIFICATE-----
