Certificate:
    Data:
        Version: 3 (0x2)
        Serial Number: 4096 (0x1000)
        Signature Algorithm: sha256WithRSAEncryption
        Issuer: C=RU, ST=Moscow, L=Moscow, O=DevOrg, OU=PKI, CN=Test Root CA
        Validity
            Not Before: Feb 11 09:12:39 2026 GMT
            Not After : Apr  1 09:12:39 2031 GMT
        Subject: CN=test-service
        Subject Public Key Info:
            Public Key Algorithm: rsaEncryption
                Public-Key: (2048 bit)
                Modulus:
                    00:ba:d5:5f:cc:97:21:25:50:ad:bb:40:60:16:e7:
                    30:2f:67:9d:f0:b2:9e:8a:61:c6:17:59:af:5f:c9:
                    14:e6:fa:db:52:40:cb:8a:c9:bf:d8:02:1e:71:e2:
                    32:83:6a:72:98:f7:05:89:0d:f1:44:eb:d4:45:a6:
                    62:5a:1a:3b:29:5e:f4:f3:17:6e:67:ca:cb:33:49:
                    7e:a6:b0:9d:0e:fd:a3:99:4e:ff:1d:c4:ec:64:18:
                    51:f0:bd:7e:73:d3:99:af:cc:0c:df:fb:88:8e:6b:
                    c2:b3:12:f3:f9:61:a5:a8:e5:8c:52:b2:e4:95:7c:
                    19:c3:a1:61:ab:00:20:5f:a1:83:59:61:47:4e:9f:
                    f1:6e:b7:90:15:b6:dd:21:a9:41:e2:e1:8b:21:76:
                    03:00:28:14:ec:17:f4:81:4d:7a:3e:4c:51:93:c8:
                    11:cc:dc:19:c7:d8:35:d4:5a:e5:e5:19:9f:8f:66:
                    5e:2e:d8:26:15:83:c6:bd:b5:ce:cf:08:48:80:1c:
                    ef:d3:7a:f9:32:57:a6:ca:ab:e5:2e:7a:3a:ce:b2:
                    75:b7:7a:75:bd:2e:9f:69:61:f1:62:9a:3b:72:af:
                    56:6a:02:f0:a0:ef:15:2d:e3:9e:cb:59:c9:1c:ec:
                    92:6b:2b:81:9f:f9:82:a4:3a:c8:1a:69:d7:78:78:
                    f1:cd
                Exponent: 65537 (0x10001)
        X509v3 extensions:
            X509v3 Basic Constraints: 
                CA:FALSE
            X509v3 Key Usage: critical
                Digital Signature, Key Encipherment
            X509v3 Extended Key Usage: 
                TLS Web Server Authentication
            X509v3 Subject Key Identifier: 
                7A:50:31:15:F6:D7:D9:CD:C0:A0:FB:42:45:52:AD:B4:F9:29:17:8D
            X509v3 Authority Key Identifier: 
                37:67:A6:41:32:A2:C4:3B:13:DD:F2:91:86:D0:EF:66:DA:96:CE:36
            X509v3 Subject Alternative Name: 
                DNS:localhost, IP Address:127.0.0.1, IP Address:0:0:0:0:0:0:0:1
    Signature Algorithm: sha256WithRSAEncryption
    Signature Value:
        aa:cf:bb:53:27:20:69:3e:15:03:87:47:72:96:da:43:d8:ef:
        fe:50:cf:d3:bb:5b:84:93:0a:de:a0:14:93:b2:9e:01:2b:35:
        3c:26:e3:fa:e3:ea:55:cc:18:7c:64:ca:06:ea:e6:36:09:87:
        29:d3:53:7f:81:4a:f6:f8:e4:d2:69:9a:7d:85:74:bc:0e:9d:
        e9:69:2c:30:aa:01:b5:be:fa:e0:1d:d9:03:b9:41:db:45:83:
        9c:f2:93:36:9b:f5:62:d0:3b:d5:b1:e9:6e:66:1f:c7:0a:3d:
        b7:87:16:d7:ff:1d:c4:0d:0e:09:59:e7:83:88:b5:7a:22:b2:
        b7:48:43:96:c5:8f:a3:c2:52:67:a5:f6:75:3b:6d:a1:71:8c:
        dc:22:c9:60:4c:b5:4c:ee:55:7b:5b:b5:23:8b:1e:c7:c8:f1:
        59:f1:7e:a4:63:e7:87:a1:4b:92:41:d7:18:67:6a:b2:a8:57:
        ab:2b:65:41:98:6f:86:ce:c4:99:06:99:59:56:9a:09:5a:f7:
        de:8b:cc:37:f9:fa:43:d2:e5:3a:9b:e3:1b:b0:7b:7e:d5:3f:
        5b:f9:c7:54:7e:13:4d:09:b5:48:27:24:ce:f8:23:68:40:4a:
        04:4a:55:c8:24:2d:b2:b8:4b:ed:d3:d7:73:e9:b1:68:66:28:
        ee:c0:a5:34:bc:f6:75:23:bd:99:ca:30:32:a7:62:32:83:70:
        51:f9:4c:a7:4e:11:7c:59:f2:8f:20:77:df:bf:4f:78:39:b9:
        6a:74:42:4f:d0:8f:e8:c4:1e:56:e7:36:85:a0:80:c8:b6:0c:
        65:cb:59:72:6c:ec:35:8d:c9:39:53:be:8c:5e:dc:7e:70:aa:
        14:5b:4f:84:cc:9c:92:a7:ce:4c:9b:27:fa:6a:b7:85:4e:57:
        60:5e:db:c5:52:ae:31:ba:64:a9:bd:1e:8e:82:5c:b4:07:4e:
        d4:bb:95:e7:be:01:a8:38:47:b2:0c:69:ea:ec:92:be:6a:3c:
        46:a4:e7:e4:4a:45:f5:72:d7:c7:fb:d0:08:4e:5b:60:8d:b7:
        2c:0b:86:39:f0:cc:78:eb:4f:34:fe:3f:b9:c4:8c:5f:51:4b:
        36:5e:54:71:88:56:77:4d:b5:e5:d7:6c:86:d7:c0:c6:3c:61:
        c0:48:b4:f5:ef:f2:5e:b2:16:86:6d:09:6e:74:82:1a:21:cd:
        30:3e:36:07:17:2e:f2:55:43:54:7e:3a:4a:2e:70:fd:af:5a:
        96:af:85:c0:28:c7:14:dd:bd:d6:9e:0a:34:13:52:58:65:96:
        bb:9e:f7:9e:b7:0a:30:5e:7a:d1:1b:d8:64:02:9b:b0:e2:a4:
        86:6b:68:b5:d7:2f:f8:1f
-----BEGIN CERTIFICATE-----
MIIEmjCCAoKgAwIBAgICEAAwDQYJKoZIhvcNAQELBQAwZTELMAkGA1UEBhMCUlUx
DzANBgNVBAgMBk1vc2NvdzEPMA0GA1UEBwwGTW9zY293MQ8wDQYDVQQKDAZEZXZP
cmcxDDAKBgNVBAsMA1BLSTEVMBMGA1UEAwwMVGVzdCBSb290IENBMB4XDTI2MDIx
MTA5MTIzOVoXDTMxMDQwMTA5MTIzOVowFzEVMBMGA1UEAwwMdGVzdC1zZXJ2aWNl
MIIBIjANBgkqhkiG9w0BAQEFAAOCAQ8AMIIBCgKCAQEAutVfzJchJVCtu0BgFucw
L2ed8LKeimHGF1mvX8kU5vrbUkDLism/2AIeceIyg2pymPcFiQ3xROvURaZiWho7
KV708xduZ8rLM0l+prCdDv2jmU7/HcTsZBhR8L1+c9OZr8wM3/uIjmvCsxLz+WGl
qOWMUrLklXwZw6FhqwAgX6GDWWFHTp/xbreQFbbdIalB4uGLIXYDACgU7Bf0gU16
PkxRk8gRzNwZx9g11Frl5Rmfj2ZeLtgmFYPGvbXOzwhIgBzv03r5MlemyqvlLno6
zrJ1t3p1vS6faWHxYpo7cq9WagLwoO8VLeOey1nJHOySayuBn/mCpDrIGmnXeHjx
zQIDAQABo4GhMIGeMAkGA1UdEwQCMAAwDgYDVR0PAQH/BAQDAgWgMBMGA1UdJQQM
MAoGCCsGAQUFBwMBMB0GA1UdDgQWBBR6UDEV9tfZzcCg+0JFUq20+SkXjTAfBgNV
HSMEGDAWgBQ3Z6ZBMqLEOxPd8pGG0O9m2pbONjAsBgNVHREEJTAjgglsb2NhbGhv
c3SHBH8AAAGHEAAAAAAAAAAAAAAAAAAAAAEwDQYJKoZIhvcNAQELBQADggIBAKrP
u1MnIGk+FQOHR3KW2kPY7/5Qz9O7W4STCt6gFJOyngErNTwm4/rj6lXMGHxkygbq
5jYJhynTU3+BSvb45NJpmn2FdLwOnelpLDCqAbW++uAd2QO5QdtFg5zykzab9WLQ
O9Wx6W5mH8cKPbeHFtf/HcQNDglZ54OItXoisrdIQ5bFj6PCUmel9nU7baFxjNwi
yWBMtUzuVXtbtSOLHsfI8VnxfqRj54ehS5JB1xhnarKoV6srZUGYb4bOxJkGmVlW
mgla996LzDf5+kPS5Tqb4xuwe37VP1v5x1R+E00JtUgnJM74I2hASgRKVcgkLbK4
S+3T13PpsWhmKO7ApTS89nUjvZnKMDKnYjKDcFH5TKdOEXxZ8o8gd9+/T3g5uWp0
Qk/Qj+jEHlbnNoWggMi2DGXLWXJs7DWNyTlTvoxe3H5wqhRbT4TMnJKnzkybJ/pq
t4VOV2Be28VSrjG6ZKm9Ho6CXLQHTtS7lee+Aag4R7IMaerskr5qPEak5+RKRfVy
18f70AhOW2CNtywLhjnwzHjrTzT+P7nEjF9RSzZeVHGIVndNteXXbIbXwMY8YcBI
tPXv8l6yFoZtCW50ghohzTA+NgcXLvJVQ1R+OkoucP2vWpavhcAoxxTdvdaeCjQT
Ulhllrue9563CjBeetEb2GQCm7DipIZraLXXL/gf
-----END CERTIFICATE-----
